; Function Attrs: nounwind uwtable
define internal fastcc void @unsupported(ptr noundef %0) unnamed_addr #1 {
  %2 = getelementptr inbounds nuw i8, ptr %0, i64 32
  %3 = load ptr, ptr %2, align 8, !tbaa !4
  %4 = getelementptr inbounds nuw i8, ptr %3, i64 48
  %5 = load i32, ptr %4, align 8, !tbaa !42
  %6 = getelementptr inbounds nuw i8, ptr %3, i64 64
  %7 = load i32, ptr %6, align 8, !tbaa !38
  %8 = getelementptr inbounds nuw i8, ptr %3, i64 68
  %9 = load i32, ptr %8, align 4, !tbaa !43
  %10 = getelementptr inbounds nuw i8, ptr %3, i64 56
  %11 = load i32, ptr %10, align 8, !tbaa !69
  tail call void (ptr, ptr, ...) @avpriv_request_sample(ptr noundef %0, ptr noundef nonnull @.str.16, i32 noundef %5, i32 noundef %7, i32 noundef %9, i32 noundef %11) #10
  ret void
}